; ModuleID = '36/1267.c'
source_filename = "36/1267.c"
target datalayout = "e-m:e-p270:32:32-p271:32:32-p272:64:64-i64:64-f80:128-n8:16:32:64-S128"
target triple = "x86_64-pc-linux-gnu"

@.str = private unnamed_addr constant [3 x i8] c"%s\00", align 1
@.str.1 = private unnamed_addr constant [4 x i8] c"YES\00", align 1
@.str.2 = private unnamed_addr constant [3 x i8] c"NO\00", align 1

; Function Attrs: noinline nounwind uwtable
define dso_local i32 @main(i32 %0, i8** %1) #0 {
  %3 = alloca i32, align 4
  %4 = alloca i32, align 4
  %5 = alloca i8**, align 8
  %6 = alloca [100 x i8], align 16
  %7 = alloca [100 x i8], align 16
  %8 = alloca i32, align 4
  %9 = alloca i32, align 4
  %10 = alloca i32, align 4
  %11 = alloca i32, align 4
  %12 = alloca i32, align 4
  store i32 0, i32* %3, align 4
  store i32 %0, i32* %4, align 4
  store i8** %1, i8*** %5, align 8
  %13 = bitcast [100 x i8]* %6 to i8*
  call void @llvm.memset.p0i8.i64(i8* align 16 %13, i8 0, i64 100, i1 false)
  %14 = bitcast i8* %13 to <{ i8, [99 x i8] }>*
  %15 = getelementptr inbounds <{ i8, [99 x i8] }>, <{ i8, [99 x i8] }>* %14, i32 0, i32 0
  store i8 32, i8* %15, align 16
  %16 = bitcast [100 x i8]* %7 to i8*
  call void @llvm.memset.p0i8.i64(i8* align 16 %16, i8 0, i64 100, i1 false)
  %17 = bitcast i8* %16 to <{ i8, [99 x i8] }>*
  %18 = getelementptr inbounds <{ i8, [99 x i8] }>, <{ i8, [99 x i8] }>* %17, i32 0, i32 0
  store i8 32, i8* %18, align 16
  %19 = getelementptr inbounds [100 x i8], [100 x i8]* %6, i64 0, i64 0
  %20 = call i32 (i8*, ...) @__isoc99_scanf(i8* getelementptr inbounds ([3 x i8], [3 x i8]* @.str, i64 0, i64 0), i8* %19)
  %21 = getelementptr inbounds [100 x i8], [100 x i8]* %6, i64 0, i64 0
  %22 = call i64 @strlen(i8* %21) #4
  %23 = trunc i64 %22 to i32
  store i32 %23, i32* %8, align 4
  %24 = getelementptr inbounds [100 x i8], [100 x i8]* %7, i64 0, i64 0
  %25 = call i32 (i8*, ...) @__isoc99_scanf(i8* getelementptr inbounds ([3 x i8], [3 x i8]* @.str, i64 0, i64 0), i8* %24)
  %26 = getelementptr inbounds [100 x i8], [100 x i8]* %7, i64 0, i64 0
  %27 = call i64 @strlen(i8* %26) #4
  %28 = trunc i64 %27 to i32
  store i32 %28, i32* %9, align 4
  store i32 0, i32* %11, align 4
  br label %29

29:                                               ; preds = %79, %2
  %30 = load i32, i32* %11, align 4
  %31 = load i32, i32* %8, align 4
  %32 = sub nsw i32 %31, 1
  %33 = icmp slt i32 %30, %32
  br i1 %33, label %34, label %82

34:                                               ; preds = %29
  %35 = load i32, i32* %8, align 4
  %36 = sub nsw i32 %35, 1
  store i32 %36, i32* %10, align 4
  br label %37

37:                                               ; preds = %75, %34
  %38 = load i32, i32* %10, align 4
  %39 = load i32, i32* %11, align 4
  %40 = icmp sgt i32 %38, %39
  br i1 %40, label %41, label %78

41:                                               ; preds = %37
  %42 = load i32, i32* %10, align 4
  %43 = sext i32 %42 to i64
  %44 = getelementptr inbounds [100 x i8], [100 x i8]* %6, i64 0, i64 %43
  %45 = load i8, i8* %44, align 1
  %46 = sext i8 %45 to i32
  %47 = load i32, i32* %10, align 4
  %48 = sub nsw i32 %47, 1
  %49 = sext i32 %48 to i64
  %50 = getelementptr inbounds [100 x i8], [100 x i8]* %6, i64 0, i64 %49
  %51 = load i8, i8* %50, align 1
  %52 = sext i8 %51 to i32
  %53 = icmp slt i32 %46, %52
  br i1 %53, label %54, label %74

54:                                               ; preds = %41
  %55 = load i32, i32* %10, align 4
  %56 = sext i32 %55 to i64
  %57 = getelementptr inbounds [100 x i8], [100 x i8]* %6, i64 0, i64 %56
  %58 = load i8, i8* %57, align 1
  %59 = sext i8 %58 to i32
  store i32 %59, i32* %12, align 4
  %60 = load i32, i32* %10, align 4
  %61 = sub nsw i32 %60, 1
  %62 = sext i32 %61 to i64
  %63 = getelementptr inbounds [100 x i8], [100 x i8]* %6, i64 0, i64 %62
  %64 = load i8, i8* %63, align 1
  %65 = load i32, i32* %10, align 4
  %66 = sext i32 %65 to i64
  %67 = getelementptr inbounds [100 x i8], [100 x i8]* %6, i64 0, i64 %66
  store i8 %64, i8* %67, align 1
  %68 = load i32, i32* %12, align 4
  %69 = trunc i32 %68 to i8
  %70 = load i32, i32* %10, align 4
  %71 = sub nsw i32 %70, 1
  %72 = sext i32 %71 to i64
  %73 = getelementptr inbounds [100 x i8], [100 x i8]* %6, i64 0, i64 %72
  store i8 %69, i8* %73, align 1
  br label %74

74:                                               ; preds = %54, %41
  br label %75

75:                                               ; preds = %74
  %76 = load i32, i32* %10, align 4
  %77 = add nsw i32 %76, -1
  store i32 %77, i32* %10, align 4
  br label %37

78:                                               ; preds = %37
  br label %79

79:                                               ; preds = %78
  %80 = load i32, i32* %11, align 4
  %81 = add nsw i32 %80, 1
  store i32 %81, i32* %11, align 4
  br label %29

82:                                               ; preds = %29
  store i32 0, i32* %11, align 4
  br label %83

83:                                               ; preds = %133, %82
  %84 = load i32, i32* %11, align 4
  %85 = load i32, i32* %9, align 4
  %86 = sub nsw i32 %85, 1
  %87 = icmp slt i32 %84, %86
  br i1 %87, label %88, label %136

88:                                               ; preds = %83
  %89 = load i32, i32* %9, align 4
  %90 = sub nsw i32 %89, 1
  store i32 %90, i32* %10, align 4
  br label %91

91:                                               ; preds = %129, %88
  %92 = load i32, i32* %10, align 4
  %93 = load i32, i32* %11, align 4
  %94 = icmp sgt i32 %92, %93
  br i1 %94, label %95, label %132

95:                                               ; preds = %91
  %96 = load i32, i32* %10, align 4
  %97 = sext i32 %96 to i64
  %98 = getelementptr inbounds [100 x i8], [100 x i8]* %7, i64 0, i64 %97
  %99 = load i8, i8* %98, align 1
  %100 = sext i8 %99 to i32
  %101 = load i32, i32* %10, align 4
  %102 = sub nsw i32 %101, 1
  %103 = sext i32 %102 to i64
  %104 = getelementptr inbounds [100 x i8], [100 x i8]* %7, i64 0, i64 %103
  %105 = load i8, i8* %104, align 1
  %106 = sext i8 %105 to i32
  %107 = icmp slt i32 %100, %106
  br i1 %107, label %108, label %128

108:                                              ; preds = %95
  %109 = load i32, i32* %10, align 4
  %110 = sext i32 %109 to i64
  %111 = getelementptr inbounds [100 x i8], [100 x i8]* %7, i64 0, i64 %110
  %112 = load i8, i8* %111, align 1
  %113 = sext i8 %112 to i32
  store i32 %113, i32* %12, align 4
  %114 = load i32, i32* %10, align 4
  %115 = sub nsw i32 %114, 1
  %116 = sext i32 %115 to i64
  %117 = getelementptr inbounds [100 x i8], [100 x i8]* %7, i64 0, i64 %116
  %118 = load i8, i8* %117, align 1
  %119 = load i32, i32* %10, align 4
  %120 = sext i32 %119 to i64
  %121 = getelementptr inbounds [100 x i8], [100 x i8]* %7, i64 0, i64 %120
  store i8 %118, i8* %121, align 1
  %122 = load i32, i32* %12, align 4
  %123 = trunc i32 %122 to i8
  %124 = load i32, i32* %10, align 4
  %125 = sub nsw i32 %124, 1
  %126 = sext i32 %125 to i64
  %127 = getelementptr inbounds [100 x i8], [100 x i8]* %7, i64 0, i64 %126
  store i8 %123, i8* %127, align 1
  br label %128

128:                                              ; preds = %108, %95
  br label %129

129:                                              ; preds = %128
  %130 = load i32, i32* %10, align 4
  %131 = add nsw i32 %130, -1
  store i32 %131, i32* %10, align 4
  br label %91

132:                                              ; preds = %91
  br label %133

133:                                              ; preds = %132
  %134 = load i32, i32* %11, align 4
  %135 = add nsw i32 %134, 1
  store i32 %135, i32* %11, align 4
  br label %83

136:                                              ; preds = %83
  %137 = getelementptr inbounds [100 x i8], [100 x i8]* %6, i64 0, i64 0
  %138 = getelementptr inbounds [100 x i8], [100 x i8]* %7, i64 0, i64 0
  %139 = call i32 @strcmp(i8* %137, i8* %138) #4
  %140 = icmp eq i32 %139, 0
  br i1 %140, label %141, label %143

141:                                              ; preds = %136
  %142 = call i32 (i8*, ...) @printf(i8* getelementptr inbounds ([4 x i8], [4 x i8]* @.str.1, i64 0, i64 0))
  br label %145

143:                                              ; preds = %136
  %144 = call i32 (i8*, ...) @printf(i8* getelementptr inbounds ([3 x i8], [3 x i8]* @.str.2, i64 0, i64 0))
  br label %145

145:                                              ; preds = %143, %141
  ret i32 0
}

; Function Attrs: argmemonly nounwind willreturn
declare void @llvm.memset.p0i8.i64(i8* nocapture writeonly, i8, i64, i1 immarg) #1

declare dso_local i32 @__isoc99_scanf(i8*, ...) #2

; Function Attrs: nounwind readonly
declare dso_local i64 @strlen(i8*) #3

; Function Attrs: nounwind readonly
declare dso_local i32 @strcmp(i8*, i8*) #3

declare dso_local i32 @printf(i8*, ...) #2


!llvm.module.flags = !{!0}
!llvm.ident = !{!1}

!0 = !{i32 1, !"wchar_size", i32 4}
!1 = !{!"clang version 10.0.0-4ubuntu1 "}
